
testcase:     file format elf64-littleriscv


Disassembly of section .text.init:

0000000080000000 <_start>:
    80000000:	a891                	j	80000054 <reset_vector>
    80000002:	0001                	nop

0000000080000004 <trap_vector>:
    80000004:	34302073          	csrr	zero,mbadaddr
    80000008:	34202f73          	csrr	t5,mcause
    8000000c:	4fa1                	li	t6,8
    8000000e:	03ff0d63          	beq	t5,t6,80000048 <write_tohost>
    80000012:	4fa5                	li	t6,9
    80000014:	03ff0a63          	beq	t5,t6,80000048 <write_tohost>
    80000018:	4fad                	li	t6,11
    8000001a:	03ff0763          	beq	t5,t6,80000048 <write_tohost>
    8000001e:	00000f17          	auipc	t5,0x0
    80000022:	1a6f0f13          	addi	t5,t5,422 # 800001c4 <mtvec_handler>
    80000026:	000f0363          	beqz	t5,8000002c <trap_vector+0x28>
    8000002a:	8f02                	jr	t5
    8000002c:	34202f73          	csrr	t5,mcause
    80000030:	000f5363          	bgez	t5,80000036 <handle_exception>
    80000034:	a009                	j	80000036 <handle_exception>

0000000080000036 <handle_exception>:
    80000036:	5391e193          	ori	gp,gp,1337
    8000003a:	341022f3          	csrr	t0,mepc
    8000003e:	0291                	addi	t0,t0,4
    80000040:	34129073          	csrw	mepc,t0
    80000044:	30200073          	mret

0000000080000048 <write_tohost>:
    80000048:	4185                	li	gp,1
    8000004a:	00001f17          	auipc	t5,0x1
    8000004e:	fa3f2b23          	sw	gp,-74(t5) # 80001000 <tohost>
    80000052:	bfdd                	j	80000048 <write_tohost>

0000000080000054 <reset_vector>:
    80000054:	4081                	li	ra,0
    80000056:	4101                	li	sp,0
    80000058:	4181                	li	gp,0
    8000005a:	4201                	li	tp,0
    8000005c:	4281                	li	t0,0
    8000005e:	4301                	li	t1,0
    80000060:	4381                	li	t2,0
    80000062:	4401                	li	s0,0
    80000064:	4481                	li	s1,0
    80000066:	4501                	li	a0,0
    80000068:	4581                	li	a1,0
    8000006a:	4601                	li	a2,0
    8000006c:	4681                	li	a3,0
    8000006e:	4701                	li	a4,0
    80000070:	4781                	li	a5,0
    80000072:	4801                	li	a6,0
    80000074:	4881                	li	a7,0
    80000076:	4901                	li	s2,0
    80000078:	4981                	li	s3,0
    8000007a:	4a01                	li	s4,0
    8000007c:	4a81                	li	s5,0
    8000007e:	4b01                	li	s6,0
    80000080:	4b81                	li	s7,0
    80000082:	4c01                	li	s8,0
    80000084:	4c81                	li	s9,0
    80000086:	4d01                	li	s10,0
    80000088:	4d81                	li	s11,0
    8000008a:	4e01                	li	t3,0
    8000008c:	4e81                	li	t4,0
    8000008e:	4f01                	li	t5,0
    80000090:	4f81                	li	t6,0
    80000092:	f1402573          	csrr	a0,mhartid
    80000096:	e101                	bnez	a0,80000096 <reset_vector+0x42>
    80000098:	00000297          	auipc	t0,0x0
    8000009c:	01028293          	addi	t0,t0,16 # 800000a8 <reset_vector+0x54>
    800000a0:	30529073          	csrw	mtvec,t0
    800000a4:	18005073          	csrwi	satp,0
    800000a8:	00000297          	auipc	t0,0x0
    800000ac:	02028293          	addi	t0,t0,32 # 800000c8 <reset_vector+0x74>
    800000b0:	30529073          	csrw	mtvec,t0
    800000b4:	0010029b          	addiw	t0,zero,1
    800000b8:	12d6                	slli	t0,t0,0x35
    800000ba:	12fd                	addi	t0,t0,-1
    800000bc:	3b029073          	csrw	pmpaddr0,t0
    800000c0:	42fd                	li	t0,31
    800000c2:	3a029073          	csrw	pmpcfg0,t0
    800000c6:	0001                	nop
    800000c8:	30405073          	csrwi	mie,0
    800000cc:	00000297          	auipc	t0,0x0
    800000d0:	01428293          	addi	t0,t0,20 # 800000e0 <reset_vector+0x8c>
    800000d4:	30529073          	csrw	mtvec,t0
    800000d8:	30205073          	csrwi	medeleg,0
    800000dc:	30305073          	csrwi	mideleg,0
    800000e0:	4181                	li	gp,0
    800000e2:	00000297          	auipc	t0,0x0
    800000e6:	f2228293          	addi	t0,t0,-222 # 80000004 <trap_vector>
    800000ea:	30529073          	csrw	mtvec,t0
    800000ee:	4505                	li	a0,1
    800000f0:	057e                	slli	a0,a0,0x1f
    800000f2:	00055a63          	bgez	a0,80000106 <reset_vector+0xb2>
    800000f6:	0ff0000f          	fence
    800000fa:	4185                	li	gp,1
    800000fc:	05d00893          	li	a7,93
    80000100:	4501                	li	a0,0
    80000102:	00000073          	ecall
    80000106:	00000293          	li	t0,0
    8000010a:	00028963          	beqz	t0,8000011c <reset_vector+0xc8>
    8000010e:	10529073          	csrw	stvec,t0
    80000112:	62ad                	lui	t0,0xb
    80000114:	1092829b          	addiw	t0,t0,265
    80000118:	30229073          	csrw	medeleg,t0
    8000011c:	30005073          	csrwi	mstatus,0
    80000120:	6509                	lui	a0,0x2
    80000122:	8005051b          	addiw	a0,a0,-2048
    80000126:	30052073          	csrs	mstatus,a0
    8000012a:	00000297          	auipc	t0,0x0
    8000012e:	01428293          	addi	t0,t0,20 # 8000013e <reset_vector+0xea>
    80000132:	34129073          	csrw	mepc,t0
    80000136:	f1402573          	csrr	a0,mhartid
    8000013a:	30200073          	mret
    8000013e:	0001                	nop
    80000140:	00000593          	li	a1,0
    80000144:	7a059073          	csrw	tselect,a1
    80000148:	00000597          	auipc	a1,0x0
    8000014c:	03058593          	addi	a1,a1,48 # 80000178 <test_point>
    80000150:	7a259073          	csrw	tdata2,a1
    80000154:	7a2025f3          	csrr	a1,tdata2
    80000158:	0010059b          	addiw	a1,zero,1
    8000015c:	02d59593          	slli	a1,a1,0x2d
    80000160:	00358593          	addi	a1,a1,3
    80000164:	01059593          	slli	a1,a1,0x10
    80000168:	05c58593          	addi	a1,a1,92
    8000016c:	7a159073          	csrw	tdata1,a1
    80000170:	7a1025f3          	csrr	a1,tdata1
    80000174:	00100193          	li	gp,1

0000000080000178 <test_point>:
    80000178:	00000013          	nop
    8000017c:	0ff0000f          	fence
    80000180:	00100193          	li	gp,1
    80000184:	05d00893          	li	a7,93
    80000188:	00000513          	li	a0,0
    8000018c:	00000073          	ecall
    80000190:	02301063          	bne	zero,gp,800001b0 <pass>

0000000080000194 <fail>:
    80000194:	0ff0000f          	fence
    80000198:	00018063          	beqz	gp,80000198 <fail+0x4>
    8000019c:	00119193          	slli	gp,gp,0x1
    800001a0:	0011e193          	ori	gp,gp,1
    800001a4:	05d00893          	li	a7,93
    800001a8:	00018513          	mv	a0,gp
    800001ac:	00000073          	ecall

00000000800001b0 <pass>:
    800001b0:	0ff0000f          	fence
    800001b4:	00100193          	li	gp,1
    800001b8:	05d00893          	li	a7,93
    800001bc:	00000513          	li	a0,0
    800001c0:	00000073          	ecall

00000000800001c4 <mtvec_handler>:
    800001c4:	343026f3          	csrr	a3,mbadaddr
    800001c8:	342025f3          	csrr	a1,mcause
    800001cc:	0ff0000f          	fence
    800001d0:	00100193          	li	gp,1
    800001d4:	05d00893          	li	a7,93
    800001d8:	00000513          	li	a0,0
    800001dc:	00000073          	ecall

00000000800001e0 <die>:
    800001e0:	0ff0000f          	fence
    800001e4:	00018063          	beqz	gp,800001e4 <die+0x4>
    800001e8:	00119193          	slli	gp,gp,0x1
    800001ec:	0011e193          	ori	gp,gp,1
    800001f0:	05d00893          	li	a7,93
    800001f4:	00018513          	mv	a0,gp
    800001f8:	00000073          	ecall
    800001fc:	c0001073          	unimp
	...

Disassembly of section .tohost:

0000000080001000 <tohost>:
	...

0000000080001040 <fromhost>:
	...
